target datalayout = "e-m:e-p270:32:32-p271:32:32-p272:64:64-i64:64-i128:128-f80:128-n8:16:32:64-S128"
target triple = "x86_64-pc-linux-gnu"

%struct._cms_NAMEDCOLORLIST_struct = type { i32, i32, i32, [33 x i8], [33 x i8], ptr, ptr }
%struct._cmsStage_struct = type { ptr, i32, i32, i32, i32, ptr, ptr, ptr, ptr, ptr }

; Function Attrs: nounwind uwtable
define hidden void @cmsFreeNamedColorList(ptr noundef %0) #0 {
  %2 = alloca ptr, align 8
  store ptr %0, ptr %2, align 8
  %3 = load ptr, ptr %2, align 8
  %4 = icmp eq ptr %3, null
  br i1 %4, label %5, label %6

5:                                                ; preds = %1
  br label %23

6:                                                ; preds = %1
  %7 = load ptr, ptr %2, align 8
  %8 = getelementptr inbounds %struct._cms_NAMEDCOLORLIST_struct, ptr %7, i32 0, i32 5
  %9 = load ptr, ptr %8, align 8
  %10 = icmp ne ptr %9, null
  br i1 %10, label %11, label %18

11:                                               ; preds = %6
  %12 = load ptr, ptr %2, align 8
  %13 = getelementptr inbounds %struct._cms_NAMEDCOLORLIST_struct, ptr %12, i32 0, i32 6
  %14 = load ptr, ptr %13, align 8
  %15 = load ptr, ptr %2, align 8
  %16 = getelementptr inbounds %struct._cms_NAMEDCOLORLIST_struct, ptr %15, i32 0, i32 5
  %17 = load ptr, ptr %16, align 8
  call void @_cmsFree(ptr noundef %14, ptr noundef %17)
  br label %18

18:                                               ; preds = %11, %6
  %19 = load ptr, ptr %2, align 8
  %20 = getelementptr inbounds %struct._cms_NAMEDCOLORLIST_struct, ptr %19, i32 0, i32 6
  %21 = load ptr, ptr %20, align 8
  %22 = load ptr, ptr %2, align 8
  call void @_cmsFree(ptr noundef %21, ptr noundef %22)
  br label %23

23:                                               ; preds = %18, %5
  ret void
}

; Function Attrs: nounwind uwtable
define internal void @FreeNamedColorList(ptr noundef %0) #0 {
  %2 = alloca ptr, align 8
  %3 = alloca ptr, align 8
  store ptr %0, ptr %2, align 8
  %4 = load ptr, ptr %2, align 8
  %5 = getelementptr inbounds %struct._cmsStage_struct, ptr %4, i32 0, i32 8
  %6 = load ptr, ptr %5, align 8
  store ptr %6, ptr %3, align 8
  %7 = load ptr, ptr %3, align 8
  call void @cmsFreeNamedColorList(ptr noundef %7)
  ret void
}