; Function Attrs: nounwind uwtable
define internal void @FreeNamedColorList(ptr nocapture noundef readonly %0) #0 {
  %2 = getelementptr inbounds i8, ptr %0, i64 48
  %3 = load ptr, ptr %2, align 8
  %4 = icmp eq ptr %3, null
  br i1 %4, label %cmsFreeNamedColorList.exit, label %5

5:                                                ; preds = %1
  %6 = getelementptr inbounds i8, ptr %3, i64 80
  %7 = load ptr, ptr %6, align 8
  %.not.i = icmp eq ptr %7, null
  br i1 %.not.i, label %11, label %8

8:                                                ; preds = %5
  %9 = getelementptr inbounds i8, ptr %3, i64 88
  %10 = load ptr, ptr %9, align 8
  tail call void @_cmsFree(ptr noundef %10, ptr noundef nonnull %7) #12
  br label %11

11:                                               ; preds = %8, %5
  %12 = getelementptr inbounds i8, ptr %3, i64 88
  %13 = load ptr, ptr %12, align 8
  tail call void @_cmsFree(ptr noundef %13, ptr noundef nonnull %3) #12
  br label %cmsFreeNamedColorList.exit

cmsFreeNamedColorList.exit:                       ; preds = %1, %11
  ret void
}